target datalayout = "e-m:e-p270:32:32-p271:32:32-p272:64:64-i64:64-i128:128-f80:128-n8:16:32:64-S128"
target triple = "x86_64-pc-linux-gnu"

%struct.optstruct = type { ptr, ptr, ptr, i64, i32, i32, i32, i32, ptr, ptr, ptr }

@stderr = external global ptr, align 8
@filelist.buff = internal global [1025 x i8] zeroinitializer, align 16
@filelist.cnt = internal global i32 0, align 4
@filelist.fs = internal global ptr null, align 8
@.str.9 = private unnamed_addr constant [10 x i8] c"file-list\00", align 1
@.str.10 = private unnamed_addr constant [2 x i8] c"r\00", align 1
@.str.11 = private unnamed_addr constant [40 x i8] c"ERROR: --file-list: Can't open file %s\0A\00", align 1

; Function Attrs: nounwind uwtable
define ptr @filelist(ptr noundef %0, ptr noundef %1) #0 {
  %3 = alloca ptr, align 8
  %4 = alloca ptr, align 8
  %5 = alloca ptr, align 8
  %6 = alloca ptr, align 8
  %7 = alloca i64, align 8
  store ptr %0, ptr %4, align 8
  store ptr %1, ptr %5, align 8
  %8 = load i32, ptr @filelist.cnt, align 4
  %9 = icmp ne i32 %8, 0
  br i1 %9, label %79, label %10

10:                                               ; preds = %2
  %11 = load ptr, ptr %4, align 8
  %12 = call ptr @optget(ptr noundef %11, ptr noundef @.str.9)
  store ptr %12, ptr %6, align 8
  %13 = getelementptr inbounds %struct.optstruct, ptr %12, i32 0, i32 4
  %14 = load i32, ptr %13, align 8
  %15 = icmp ne i32 %14, 0
  br i1 %15, label %16, label %79

16:                                               ; preds = %10
  %17 = load ptr, ptr @filelist.fs, align 8
  %18 = icmp ne ptr %17, null
  br i1 %18, label %38, label %19

19:                                               ; preds = %16
  %20 = load ptr, ptr %6, align 8
  %21 = getelementptr inbounds %struct.optstruct, ptr %20, i32 0, i32 2
  %22 = load ptr, ptr %21, align 8
  %23 = call noalias ptr @fopen(ptr noundef %22, ptr noundef @.str.10)
  store ptr %23, ptr @filelist.fs, align 8
  %24 = load ptr, ptr @filelist.fs, align 8
  %25 = icmp ne ptr %24, null
  br i1 %25, label %37, label %26

26:                                               ; preds = %19
  %27 = load ptr, ptr @stderr, align 8
  %28 = load ptr, ptr %6, align 8
  %29 = getelementptr inbounds %struct.optstruct, ptr %28, i32 0, i32 2
  %30 = load ptr, ptr %29, align 8
  %31 = call i32 (ptr, ptr, ...) @fprintf(ptr noundef %27, ptr noundef @.str.11, ptr noundef %30) #10
  %32 = load ptr, ptr %5, align 8
  %33 = icmp ne ptr %32, null
  br i1 %33, label %34, label %36

34:                                               ; preds = %26
  %35 = load ptr, ptr %5, align 8
  store i32 54, ptr %35, align 4
  br label %36

36:                                               ; preds = %34, %26
  store ptr null, ptr %3, align 8
  br label %96

37:                                               ; preds = %19
  br label %38

38:                                               ; preds = %37, %16
  %39 = load ptr, ptr @filelist.fs, align 8
  %40 = call ptr @fgets(ptr noundef @filelist.buff, i32 noundef 1024, ptr noundef %39)
  %41 = icmp ne ptr %40, null
  br i1 %41, label %42, label %76

42:                                               ; preds = %38
  store i8 0, ptr getelementptr inbounds ([1025 x i8], ptr @filelist.buff, i64 0, i64 1024), align 16
  %43 = call i64 @strlen(ptr noundef @filelist.buff) #8
  store i64 %43, ptr %7, align 8
  %44 = load i64, ptr %7, align 8
  %45 = icmp ne i64 %44, 0
  br i1 %45, label %49, label %46

46:                                               ; preds = %42
  %47 = load ptr, ptr @filelist.fs, align 8
  %48 = call i32 @fclose(ptr noundef %47)
  store ptr null, ptr %3, align 8
  br label %96

49:                                               ; preds = %42
  %50 = load i64, ptr %7, align 8
  %51 = add i64 %50, -1
  store i64 %51, ptr %7, align 8
  br label %52

52:                                               ; preds = %71, %49
  %53 = load i64, ptr %7, align 8
  %54 = icmp ne i64 %53, 0
  br i1 %54, label %55, label %69

55:                                               ; preds = %52
  %56 = load i64, ptr %7, align 8
  %57 = getelementptr inbounds [1025 x i8], ptr @filelist.buff, i64 0, i64 %56
  %58 = load i8, ptr %57, align 1
  %59 = sext i8 %58 to i32
  %60 = icmp eq i32 %59, 10
  br i1 %60, label %67, label %61

61:                                               ; preds = %55
  %62 = load i64, ptr %7, align 8
  %63 = getelementptr inbounds [1025 x i8], ptr @filelist.buff, i64 0, i64 %62
  %64 = load i8, ptr %63, align 1
  %65 = sext i8 %64 to i32
  %66 = icmp eq i32 %65, 13
  br label %67

67:                                               ; preds = %61, %55
  %68 = phi i1 [ true, %55 ], [ %66, %61 ]
  br label %69

69:                                               ; preds = %67, %52
  %70 = phi i1 [ false, %52 ], [ %68, %67 ]
  br i1 %70, label %71, label %75

71:                                               ; preds = %69
  %72 = load i64, ptr %7, align 8
  %73 = add i64 %72, -1
  store i64 %73, ptr %7, align 8
  %74 = getelementptr inbounds [1025 x i8], ptr @filelist.buff, i64 0, i64 %72
  store i8 0, ptr %74, align 1
  br label %52

75:                                               ; preds = %69
  store ptr @filelist.buff, ptr %3, align 8
  br label %96

76:                                               ; preds = %38
  %77 = load ptr, ptr @filelist.fs, align 8
  %78 = call i32 @fclose(ptr noundef %77)
  store ptr null, ptr %3, align 8
  br label %96

79:                                               ; preds = %10, %2
  %80 = load ptr, ptr %4, align 8
  %81 = getelementptr inbounds %struct.optstruct, ptr %80, i32 0, i32 10
  %82 = load ptr, ptr %81, align 8
  %83 = icmp ne ptr %82, null
  br i1 %83, label %84, label %93

84:                                               ; preds = %79
  %85 = load ptr, ptr %4, align 8
  %86 = getelementptr inbounds %struct.optstruct, ptr %85, i32 0, i32 10
  %87 = load ptr, ptr %86, align 8
  %88 = load i32, ptr @filelist.cnt, align 4
  %89 = add i32 %88, 1
  store i32 %89, ptr @filelist.cnt, align 4
  %90 = zext i32 %88 to i64
  %91 = getelementptr inbounds ptr, ptr %87, i64 %90
  %92 = load ptr, ptr %91, align 8
  br label %94

93:                                               ; preds = %79
  br label %94

94:                                               ; preds = %93, %84
  %95 = phi ptr [ %92, %84 ], [ null, %93 ]
  store ptr %95, ptr %3, align 8
  br label %96

96:                                               ; preds = %94, %76, %75, %46, %36
  %97 = load ptr, ptr %3, align 8
  ret ptr %97
}