; Function Attrs: nounwind uwtable
define ptr @filelist(ptr noundef %0, ptr noundef writeonly %1) local_unnamed_addr #1 {
  %3 = load i32, ptr @filelist.cnt, align 4
  %.not = icmp eq i32 %3, 0
  br i1 %.not, label %4, label %32

4:                                                ; preds = %2
  %5 = tail call ptr @optget(ptr noundef %0, ptr noundef nonnull @.str.9) #18
  %6 = getelementptr inbounds i8, ptr %5, i64 32
  %7 = load i32, ptr %6, align 8
  %.not20 = icmp eq i32 %7, 0
  br i1 %.not20, label %32, label %8

8:                                                ; preds = %4
  %9 = load ptr, ptr @filelist.fs, align 8
  %.not21 = icmp eq ptr %9, null
  br i1 %.not21, label %10, label %19

10:                                               ; preds = %8
  %11 = getelementptr inbounds i8, ptr %5, i64 16
  %12 = load ptr, ptr %11, align 8
  %13 = tail call noalias ptr @fopen(ptr noundef %12, ptr noundef nonnull @.str.10)
  store ptr %13, ptr @filelist.fs, align 8
  %.not22 = icmp eq ptr %13, null
  br i1 %.not22, label %14, label %19

14:                                               ; preds = %10
  %15 = load ptr, ptr @stderr, align 8
  %16 = load ptr, ptr %11, align 8
  %17 = tail call i32 (ptr, ptr, ...) @fprintf(ptr noundef %15, ptr noundef nonnull @.str.11, ptr noundef %16) #22
  %.not23 = icmp eq ptr %1, null
  br i1 %.not23, label %.critedge, label %18

18:                                               ; preds = %14
  store i32 54, ptr %1, align 4
  br label %.critedge

19:                                               ; preds = %10, %8
  %20 = phi ptr [ %13, %10 ], [ %9, %8 ]
  %21 = tail call ptr @fgets(ptr noundef nonnull @filelist.buff, i32 noundef 1024, ptr noundef nonnull %20)
  %.not24 = icmp eq ptr %21, null
  br i1 %.not24, label %29, label %22

22:                                               ; preds = %19
  store i8 0, ptr getelementptr inbounds ([1025 x i8], ptr @filelist.buff, i64 0, i64 1024), align 16
  %23 = tail call i64 @strlen(ptr noundef nonnull dereferenceable(1) @filelist.buff) #19
  %.not25 = icmp eq i64 %23, 0
  br i1 %.not25, label %24, label %.preheader

.preheader:                                       ; preds = %22
  %.028 = add i64 %23, -1
  %.not2629 = icmp eq i64 %.028, 0
  br i1 %.not2629, label %.critedge, label %.lr.ph

24:                                               ; preds = %22
  %25 = load ptr, ptr @filelist.fs, align 8
  %26 = tail call i32 @fclose(ptr noundef %25)
  br label %.critedge

.lr.ph:                                           ; preds = %.preheader, %.critedge2
  %.030 = phi i64 [ %.0, %.critedge2 ], [ %.028, %.preheader ]
  %27 = getelementptr inbounds [1025 x i8], ptr @filelist.buff, i64 0, i64 %.030
  %28 = load i8, ptr %27, align 1
  switch i8 %28, label %.critedge [
    i8 10, label %.critedge2
    i8 13, label %.critedge2
  ]

.critedge2:                                       ; preds = %.lr.ph, %.lr.ph
  store i8 0, ptr %27, align 1
  %.0 = add i64 %.030, -1
  %.not26 = icmp eq i64 %.0, 0
  br i1 %.not26, label %.critedge, label %.lr.ph

29:                                               ; preds = %19
  %30 = load ptr, ptr @filelist.fs, align 8
  %31 = tail call i32 @fclose(ptr noundef %30)
  br label %.critedge

32:                                               ; preds = %4, %2
  %33 = getelementptr inbounds i8, ptr %0, i64 64
  %34 = load ptr, ptr %33, align 8
  %.not27 = icmp eq ptr %34, null
  br i1 %.not27, label %.critedge, label %35

35:                                               ; preds = %32
  %36 = load i32, ptr @filelist.cnt, align 4
  %37 = add i32 %36, 1
  store i32 %37, ptr @filelist.cnt, align 4
  %38 = zext i32 %36 to i64
  %39 = getelementptr inbounds ptr, ptr %34, i64 %38
  %40 = load ptr, ptr %39, align 8
  br label %.critedge

.critedge:                                        ; preds = %.lr.ph, %.critedge2, %.preheader, %35, %32, %14, %18, %29, %24
  %.015 = phi ptr [ null, %24 ], [ null, %29 ], [ null, %18 ], [ null, %14 ], [ %40, %35 ], [ null, %32 ], [ @filelist.buff, %.preheader ], [ @filelist.buff, %.critedge2 ], [ @filelist.buff, %.lr.ph ]
  ret ptr %.015
}